(dp0
S'node'
p1
(iNode
Node
p2
(dp3
S'hs06'
p4
S''
p5
sS'allocatedCPU'
p6
g5
sS'jobSlots'
p7
g5
sS'nodename'
p8
S'bl-11-13.aglt2.org'
p9
sS'wallLimitSecs'
p10
g5
sS'jobStartSecs'
p11
g5
sS'mem'
p12
F15883.6640625
sS'cpuLimitSecs'
p13
g5
sS'numberOfCores'
p14
NsS'memLimitMB'
p15
g5
sS'cpuFactorLrms'
p16
g5
sS'physCores'
p17
g5
sS'benchmarks'
p18
NsS'cpuLimitSecsLrms'
p19
g5
sS'diskLimitGB'
p20
g5
sS'wallLimitSecsLrms'
p21
g5
sS'disk'
p22
F110089.0
sS'cpu'
p23
F2834.0
sS'logCores'
p24
g5
sS'shutdownTime'
p25
g5
sbsS'job'
p26
(iJob
Job
p27
(dp28
S'jobsetID'
p29
S'1616'
p30
sS'hpcStatus'
p31
NsS'overwriteAGISData'
p32
(dp33
sS'prodDBlocks'
p34
(lp35
S'mc16_13TeV:mc16_13TeV.410501.PowhegPythia8EvtGen_A14_ttbar_hdamp258p75_nonallhad.deriv.DAOD_TOPQ1.e5458_s3126_r9364_r9315_p3404_tid12770053_00'
p36
aS'mc16_13TeV:mc16_13TeV.410501.PowhegPythia8EvtGen_A14_ttbar_hdamp258p75_nonallhad.deriv.DAOD_TOPQ1.e5458_s3126_r9364_r9315_p3404_tid12770053_00'
p37
aS'mc16_13TeV:mc16_13TeV.410501.PowhegPythia8EvtGen_A14_ttbar_hdamp258p75_nonallhad.deriv.DAOD_TOPQ1.e5458_s3126_r9364_r9315_p3404_tid12770053_00'
p38
aS'mc16_13TeV:mc16_13TeV.410501.PowhegPythia8EvtGen_A14_ttbar_hdamp258p75_nonallhad.deriv.DAOD_TOPQ1.e5458_s3126_r9364_r9315_p3404_tid12770053_00'
p39
aS'NULL'
p40
asS'destinationSE'
p41
S'NULL'
p42
sS'exeErrorCode'
p43
I0
sS'jobState'
p44
S'running'
p45
sS'checksumIn'
p46
(lp47
S'ad:c96dea72'
p48
aS'ad:76f50b97'
p49
aS'ad:851faf7d'
p50
aS'ad:5f1c188e'
p51
aS'ad:6bc61b2e'
p52
asS'HPCJobId'
p53
NsS'realDatasetsIn'
p54
(lp55
S'mc16_13TeV.410501.PowhegPythia8EvtGen_A14_ttbar_hdamp258p75_nonallhad.deriv.DAOD_TOPQ1.e5458_s3126_r9364_r9315_p3404'
p56
aS'mc16_13TeV.410501.PowhegPythia8EvtGen_A14_ttbar_hdamp258p75_nonallhad.deriv.DAOD_TOPQ1.e5458_s3126_r9364_r9315_p3404'
p57
aS'mc16_13TeV.410501.PowhegPythia8EvtGen_A14_ttbar_hdamp258p75_nonallhad.deriv.DAOD_TOPQ1.e5458_s3126_r9364_r9315_p3404'
p58
aS'mc16_13TeV.410501.PowhegPythia8EvtGen_A14_ttbar_hdamp258p75_nonallhad.deriv.DAOD_TOPQ1.e5458_s3126_r9364_r9315_p3404'
p59
aS'panda.0304123808.803789.lib._17303704'
p60
asS'dbTime'
p61
g5
sS'filesWithoutFAX'
p62
I1
sS'timeStageIn'
p63
I11
sS'processingType'
p64
S'panda-client-0.6.15-jedi-run'
p65
sS'cpuConversionFactor'
p66
I0
sS'vmPeakMax'
p67
I0
sS'bytesWithFAX'
p68
I0
sS'scopeOut'
p69
(lp70
S'panda'
p71
asS'eventServiceMerge'
p72
I00
sS'outputZipBucketID'
p73
NsS'ddmEndPointLog'
p74
(lp75
S'AGLT2_SCRATCHDISK'
p76
asS'pilotErrorDiag'
p77
g5
sS'timeCleanUp'
p78
I0
sS'allowNoOutput'
p79
(lp80
sS'logDblock'
p81
S'panda.um.user.lscyboz.410501.PowhegPythia8EvtGen.DAOD_TOPQ1.e5458_s3126_r9364_r9315_p3404.t3.log.234826618_sub06721705'
p82
sS'timeStageOut'
p83
I0
sS'destinationDblock'
p84
(lp85
S'panda.um.user.lscyboz.410501.PowhegPythia8EvtGen.DAOD_TOPQ1.e5458_s3126_r9364_r9315_p3404.t3_output.root.234826619_sub06721703'
p86
asS'dispatchDBlockToken'
p87
(lp88
S'NULL'
p89
aS'NULL'
p90
aS'NULL'
p91
aS'NULL'
p92
aS'NULL'
p93
asS'RSSMean'
p94
I0
sS'attemptNr'
p95
I1
sS'corruptedFiles'
p96
NsS'filesAltStageOut'
p97
I0
sS'nEventsFailed'
p98
I0
sS'noExecStrCnv'
p99
I00
sS'outFiles'
p100
(lp101
S'panda.um.user.lscyboz.17303704._000002.output.root'
p102
asS'cpuConsumptionUnit'
p103
NsS'ddmEndPointOut'
p104
(lp105
S'AGLT2_SCRATCHDISK'
p106
asS'scopeIn'
p107
(lp108
S'mc16_13TeV'
p109
aS'mc16_13TeV'
p110
aS'mc16_13TeV'
p111
aS'mc16_13TeV'
p112
aS'panda'
p113
asS'prodSourceLabel'
p114
S'user'
p115
sS'refreshNow'
p116
I00
sS't0'
p117
NsS'trf'
p118
S'http://pandaserver.cern.ch:25085/trf/user/runGen-00-00-02'
p119
sS'credname'
p120
S'None'
p121
sS'mode'
p122
NsS'stderr'
p123
S'athena_stderr.txt'
p124
sS'debug'
p125
S'False'
p126
sS'log_field'
p127
NsS'currentState'
p128
g45
sS'spsetup'
p129
g5
sS'newDirNM'
p130
g5
sS'accessmode'
p131
S'direct'
p132
sS'coreCount'
p133
S'1'
p134
sS'destinationDBlockToken'
p135
(lp136
S'TOMERGE'
p137
ag137
asS'zipmap'
p138
(dp139
sS'myproxy'
p140
g121
sS'output_latereg'
p141
g121
sS'outputFilesXML'
p142
S'OutputFiles-4265075871.xml'
p143
sS'pandaProxySecretKey'
p144
NsS'timeExe'
p145
I0
sS'inFilePosEvtNum'
p146
I00
sS'external_stageout_time'
p147
NsS'writetofile'
p148
g5
sS'experiment'
p149
S'ATLAS'
p150
sS'filesNormalStageOut'
p151
I0
sS'lastState'
p152
g5
sS'maxDiskCount'
p153
I14069
sS'siteworkdir'
p154
NsS'jobPars'
p155
S'-j \'\' --sourceURL https://aipanda011.cern.ch:25443 -r ./ -p top-xaod%20UpfoldingRecoLevel.txt%20in.txt -l panda.0304123808.803789.lib._17303704.16751001456.lib.tgz -o \'{\'"\'"\'output.root\'"\'"\': \'"\'"\'panda.um.user.lscyboz.17303704._000002.output.root\'"\'"\'}\' -i \'[\'"\'"\'DAOD_TOPQ1.12770053._000005.pool.root.1\'"\'"\', \'"\'"\'DAOD_TOPQ1.12770053._000006.pool.root.1\'"\'"\', \'"\'"\'DAOD_TOPQ1.12770053._000007.pool.root.1\'"\'"\', \'"\'"\'DAOD_TOPQ1.12770053._000008.pool.root.1\'"\'"\']\' --useAthenaPackages --useCMake --writeInputToTxt IN:in.txt'
p156
sS'yodaJobMetrics'
p157
NsS'sourceSite'
p158
g42
sS'release'
p159
S'21.2.61'
p160
sS'isPilotResubmissionRequired'
p161
I00
sS'timeSetup'
p162
I15
sS'subError'
p163
NsS'nEventsW'
p164
I0
sS'dispatchDblock'
p165
(lp166
S'NULL'
p167
aS'NULL'
p168
aS'NULL'
p169
aS'NULL'
p170
aS'panda.0304123808.803789.lib._17303704'
p171
asS'logData'
p172
(lp173
ccopy_reg
_reconstructor
p174
(cJob
FileSpec
p175
c__builtin__
object
p176
Ntp177
Rp178
(dp179
S'eventRangeId'
p180
Nsg131
NsS'lfn'
p181
S'panda.um.user.lscyboz.410501.PowhegPythia8EvtGen.DAOD_TOPQ1.e5458_s3126_r9364_r9315_p3404.t3.log.17303704.000002.log.tgz'
p182
sS'ddmendpoint'
p183
S'AGLT2_SCRATCHDISK'
p184
sS'dispatchDBlockTokenForOut'
p185
S'NULL'
p186
sS'dataset'
p187
S'panda.um.user.lscyboz.410501.PowhegPythia8EvtGen.DAOD_TOPQ1.e5458_s3126_r9364_r9315_p3404.t3.log.234826618'
p188
sg135
S'TOMERGE'
p189
sS'mtime'
p190
NsS'fileDestinationSE'
p191
S'ANALY_AGLT2_SL7-condor'
p192
sg144
NsS'guid'
p193
S'2032bd91-1e3c-458a-8916-df15fc35f02e'
p194
sS'replicas'
p195
(lp196
sS'allowRemoteInputs'
p197
NsS'filesize'
p198
I0
sS'status_code'
p199
NsS'scope'
p200
g71
sS'type'
p201
S'log'
p202
sS'eventService'
p203
I00
sS'status'
p204
NsS'ddmendpoint_alt'
p205
NsS'prodDBlockToken'
p206
Nsg84
S'panda.um.user.lscyboz.410501.PowhegPythia8EvtGen.DAOD_TOPQ1.e5458_s3126_r9364_r9315_p3404.t3.log.234826618_sub06721705'
p207
sg87
NsS'surl'
p208
NsS'osPublicKey'
p209
NsS'pathConvention'
p210
NsS'pfn'
p211
NsS'taskId'
p212
NsS'prodDBlockTokenForOutput'
p213
NsS'retries'
p214
I0
sg165
NsS'jobId'
p215
NsS'checksum'
p216
NsS'cmtconfig'
p217
NsS'allowAllInputRSEs'
p218
I00
sS'turl'
p219
NsS'storageId'
p220
NsS'prodDBlock'
p221
NsS'osPrivateKey'
p222
NsbasS'timeGetJob'
p223
I0
sS'nEventsFailedStagedOut'
p224
I0
sS'outputZipEventRangesName'
p225
NsS'bytesWithoutFAX'
p226
I900408
sS'taskID'
p227
S'17303704'
p228
sS'action'
p229
g5
sS'logFile'
p230
S'panda.um.user.lscyboz.410501.PowhegPythia8EvtGen.DAOD_TOPQ1.e5458_s3126_r9364_r9315_p3404.t3.log.17303704.000002.log.tgz'
p231
sS'homePackage'
p232
S'AnalysisTransforms-AnalysisTop_21.2.61'
p233
sg185
(lp234
S'NULL'
p235
ag235
asg215
S'4265075871'
p236
sS'inFilesGuids'
p237
(lp238
S'4B8E7698-CBF9-A048-A534-350CED6D1A4C'
p239
aS'F6BC7C3F-C0C5-1B47-A3E9-FC5C703CCA1F'
p240
aS'D4FDCACC-8CCF-A946-A026-82039C9DEBE8'
p241
aS'D536CFBD-E99E-5240-A8CD-DECC084F2A3C'
p242
aS'9430ea68-644a-413b-a1fb-ee2e0f6b7c50'
p243
asS'payload'
p244
S'athena'
p245
sS'cloud'
p246
S'US'
p247
sS'logMsgFiles'
p248
(lp249
sS'cloneJob'
p250
g5
sS'inData'
p251
(lp252
g174
(g175
g176
Ntp253
Rp254
(dp255
g180
Nsg131
g132
sg181
S'DAOD_TOPQ1.12770053._000005.pool.root.1'
p256
sg183
VAGLT2_DATADISK
p257
sg185
Nsg187
S'mc16_13TeV.410501.PowhegPythia8EvtGen_A14_ttbar_hdamp258p75_nonallhad.deriv.DAOD_TOPQ1.e5458_s3126_r9364_r9315_p3404'
p258
sg135
Nsg190
Nsg191
Nsg144
Nsg193
S'4B8E7698-CBF9-A048-A534-350CED6D1A4C'
p259
sg195
(lp260
(g257
(lp261
Vsrm://head01.aglt2.org:8443/srm/managerv2?SFN=/pnfs/aglt2.org/atlasdatadisk/rucio/mc16_13TeV/a1/06/DAOD_TOPQ1.12770053._000005.pool.root.1
p262
aVroot://xrootd.aglt2.org:1094//pnfs/aglt2.org/atlasdatadisk/rucio/mc16_13TeV/a1/06/DAOD_TOPQ1.12770053._000005.pool.root.1
p263
aVdavs://head01.aglt2.org:2880/atlasdatadisk/rucio/mc16_13TeV/a1/06/DAOD_TOPQ1.12770053._000005.pool.root.1
p264
aVgsiftp://dcdum02.aglt2.org:2811/pnfs/aglt2.org/atlasdatadisk/rucio/mc16_13TeV/a1/06/DAOD_TOPQ1.12770053._000005.pool.root.1
p265
aVsrm://head01.aglt2.org:8443/srm/managerv2?SFN=
p266
V/pnfs/aglt2.org/atlasdatadisk/rucio/
p267
tp268
asg197
I00
sg198
I7382262165
sg199
Nsg200
S'mc16_13TeV'
p269
sg201
S'input'
p270
sg203
I00
sg204
S'remote_io'
p271
sg205
Nsg206
S'NULL'
p272
sg84
Nsg87
S'NULL'
p273
sS'inputddms'
p274
(lp275
VAGLT2_SCRATCHDISK
p276
ag257
aVAGLT2_CALIBDISK
p277
aVAGLT2_LOCALGROUPDISK
p278
asg208
g262
sg209
Nsg210
Nsg211
Nsg212
Nsg213
Nsg214
I0
sg165
S'NULL'
p279
sg215
Nsg216
S'ad:c96dea72'
p280
sg217
S'x86_64-slc6-gcc62-opt'
p281
sg218
I00
sg219
g263
sg220
Nsg221
S'mc16_13TeV:mc16_13TeV.410501.PowhegPythia8EvtGen_A14_ttbar_hdamp258p75_nonallhad.deriv.DAOD_TOPQ1.e5458_s3126_r9364_r9315_p3404_tid12770053_00'
p282
sg222
Nsbag174
(g175
g176
Ntp283
Rp284
(dp285
g180
Nsg131
g132
sg181
S'DAOD_TOPQ1.12770053._000006.pool.root.1'
p286
sg183
VAGLT2_DATADISK
p287
sg185
Nsg187
S'mc16_13TeV.410501.PowhegPythia8EvtGen_A14_ttbar_hdamp258p75_nonallhad.deriv.DAOD_TOPQ1.e5458_s3126_r9364_r9315_p3404'
p288
sg135
Nsg190
Nsg191
Nsg144
Nsg193
S'F6BC7C3F-C0C5-1B47-A3E9-FC5C703CCA1F'
p289
sg195
(lp290
(g287
(lp291
Vsrm://head01.aglt2.org:8443/srm/managerv2?SFN=/pnfs/aglt2.org/atlasdatadisk/rucio/mc16_13TeV/a9/e1/DAOD_TOPQ1.12770053._000006.pool.root.1
p292
aVroot://xrootd.aglt2.org:1094//pnfs/aglt2.org/atlasdatadisk/rucio/mc16_13TeV/a9/e1/DAOD_TOPQ1.12770053._000006.pool.root.1
p293
aVdavs://head01.aglt2.org:2880/atlasdatadisk/rucio/mc16_13TeV/a9/e1/DAOD_TOPQ1.12770053._000006.pool.root.1
p294
aVgsiftp://dcdum02.aglt2.org:2811/pnfs/aglt2.org/atlasdatadisk/rucio/mc16_13TeV/a9/e1/DAOD_TOPQ1.12770053._000006.pool.root.1
p295
ag266
g267
tp296
asg197
I00
sg198
I7398983644
sg199
Nsg200
S'mc16_13TeV'
p297
sg201
g270
sg203
I00
sg204
g271
sg205
Nsg206
S'NULL'
p298
sg84
Nsg87
S'NULL'
p299
sg274
(lp300
VAGLT2_SCRATCHDISK
p301
ag287
aVAGLT2_CALIBDISK
p302
aVAGLT2_LOCALGROUPDISK
p303
asg208
g292
sg209
Nsg210
Nsg211
Nsg212
Nsg213
Nsg214
I0
sg165
S'NULL'
p304
sg215
Nsg216
S'ad:76f50b97'
p305
sg217
g281
sg218
I00
sg219
g293
sg220
Nsg221
S'mc16_13TeV:mc16_13TeV.410501.PowhegPythia8EvtGen_A14_ttbar_hdamp258p75_nonallhad.deriv.DAOD_TOPQ1.e5458_s3126_r9364_r9315_p3404_tid12770053_00'
p306
sg222
Nsbag174
(g175
g176
Ntp307
Rp308
(dp309
g180
Nsg131
g132
sg181
S'DAOD_TOPQ1.12770053._000007.pool.root.1'
p310
sg183
VAGLT2_DATADISK
p311
sg185
Nsg187
S'mc16_13TeV.410501.PowhegPythia8EvtGen_A14_ttbar_hdamp258p75_nonallhad.deriv.DAOD_TOPQ1.e5458_s3126_r9364_r9315_p3404'
p312
sg135
Nsg190
Nsg191
Nsg144
Nsg193
S'D4FDCACC-8CCF-A946-A026-82039C9DEBE8'
p313
sg195
(lp314
(g311
(lp315
Vsrm://head01.aglt2.org:8443/srm/managerv2?SFN=/pnfs/aglt2.org/atlasdatadisk/rucio/mc16_13TeV/cd/a1/DAOD_TOPQ1.12770053._000007.pool.root.1
p316
aVroot://xrootd.aglt2.org:1094//pnfs/aglt2.org/atlasdatadisk/rucio/mc16_13TeV/cd/a1/DAOD_TOPQ1.12770053._000007.pool.root.1
p317
aVdavs://head01.aglt2.org:2880/atlasdatadisk/rucio/mc16_13TeV/cd/a1/DAOD_TOPQ1.12770053._000007.pool.root.1
p318
aVgsiftp://dcdum02.aglt2.org:2811/pnfs/aglt2.org/atlasdatadisk/rucio/mc16_13TeV/cd/a1/DAOD_TOPQ1.12770053._000007.pool.root.1
p319
ag266
g267
tp320
asg197
I00
sg198
I7386787697
sg199
Nsg200
S'mc16_13TeV'
p321
sg201
g270
sg203
I00
sg204
g271
sg205
Nsg206
S'NULL'
p322
sg84
Nsg87
S'NULL'
p323
sg274
(lp324
VAGLT2_SCRATCHDISK
p325
ag311
aVAGLT2_CALIBDISK
p326
aVAGLT2_LOCALGROUPDISK
p327
asg208
g316
sg209
Nsg210
Nsg211
Nsg212
Nsg213
Nsg214
I0
sg165
S'NULL'
p328
sg215
Nsg216
S'ad:851faf7d'
p329
sg217
g281
sg218
I00
sg219
g317
sg220
Nsg221
S'mc16_13TeV:mc16_13TeV.410501.PowhegPythia8EvtGen_A14_ttbar_hdamp258p75_nonallhad.deriv.DAOD_TOPQ1.e5458_s3126_r9364_r9315_p3404_tid12770053_00'
p330
sg222
Nsbag174
(g175
g176
Ntp331
Rp332
(dp333
g180
Nsg131
g132
sg181
S'DAOD_TOPQ1.12770053._000008.pool.root.1'
p334
sg183
VAGLT2_DATADISK
p335
sg185
Nsg187
S'mc16_13TeV.410501.PowhegPythia8EvtGen_A14_ttbar_hdamp258p75_nonallhad.deriv.DAOD_TOPQ1.e5458_s3126_r9364_r9315_p3404'
p336
sg135
Nsg190
Nsg191
Nsg144
Nsg193
S'D536CFBD-E99E-5240-A8CD-DECC084F2A3C'
p337
sg195
(lp338
(g335
(lp339
Vsrm://head01.aglt2.org:8443/srm/managerv2?SFN=/pnfs/aglt2.org/atlasdatadisk/rucio/mc16_13TeV/69/8b/DAOD_TOPQ1.12770053._000008.pool.root.1
p340
aVroot://xrootd.aglt2.org:1094//pnfs/aglt2.org/atlasdatadisk/rucio/mc16_13TeV/69/8b/DAOD_TOPQ1.12770053._000008.pool.root.1
p341
aVdavs://head01.aglt2.org:2880/atlasdatadisk/rucio/mc16_13TeV/69/8b/DAOD_TOPQ1.12770053._000008.pool.root.1
p342
aVgsiftp://dcdum02.aglt2.org:2811/pnfs/aglt2.org/atlasdatadisk/rucio/mc16_13TeV/69/8b/DAOD_TOPQ1.12770053._000008.pool.root.1
p343
ag266
g267
tp344
asg197
I00
sg198
I7400696159
sg199
Nsg200
S'mc16_13TeV'
p345
sg201
g270
sg203
I00
sg204
g271
sg205
Nsg206
S'NULL'
p346
sg84
Nsg87
S'NULL'
p347
sg274
(lp348
VAGLT2_SCRATCHDISK
p349
ag335
aVAGLT2_CALIBDISK
p350
aVAGLT2_LOCALGROUPDISK
p351
asg208
g340
sg209
Nsg210
Nsg211
Nsg212
Nsg213
Nsg214
I0
sg165
S'NULL'
p352
sg215
Nsg216
S'ad:5f1c188e'
p353
sg217
g281
sg218
I00
sg219
g341
sg220
Nsg221
S'mc16_13TeV:mc16_13TeV.410501.PowhegPythia8EvtGen_A14_ttbar_hdamp258p75_nonallhad.deriv.DAOD_TOPQ1.e5458_s3126_r9364_r9315_p3404_tid12770053_00'
p354
sg222
Nsbag174
(g175
g176
Ntp355
Rp356
(dp357
g180
Nsg131
g132
sg181
S'panda.0304123808.803789.lib._17303704.16751001456.lib.tgz'
p358
sg183
VAGLT2_SCRATCHDISK
p359
sg185
Nsg187
S'panda.0304123808.803789.lib._17303704'
p360
sg135
Nsg190
Nsg191
Nsg144
Nsg193
S'9430ea68-644a-413b-a1fb-ee2e0f6b7c50'
p361
sg195
(lp362
(g359
(lp363
Vsrm://head01.aglt2.org:8443/srm/managerv2?SFN=/pnfs/aglt2.org/atlasscratchdisk/rucio/panda/9f/e8/panda.0304123808.803789.lib._17303704.16751001456.lib.tgz
p364
aVroot://xrootd.aglt2.org:1094//pnfs/aglt2.org/atlasscratchdisk/rucio/panda/9f/e8/panda.0304123808.803789.lib._17303704.16751001456.lib.tgz
p365
aVdavs://head01.aglt2.org:2880/atlasscratchdisk/rucio/panda/9f/e8/panda.0304123808.803789.lib._17303704.16751001456.lib.tgz
p366
aVgsiftp://dcdum02.aglt2.org:2811/pnfs/aglt2.org/atlasscratchdisk/rucio/panda/9f/e8/panda.0304123808.803789.lib._17303704.16751001456.lib.tgz
p367
aVsrm://head01.aglt2.org:8443/srm/managerv2?SFN=
p368
V/pnfs/aglt2.org/atlasscratchdisk/rucio/
p369
tp370
asg197
I00
sg198
I900408
sg199
I0
sg200
S'panda'
p371
sg201
g270
sg203
I00
sg204
S'transferred'
p372
sg205
Nsg206
S'local'
p373
sg84
Nsg87
S'NULL'
p374
sg274
(lp375
g359
aVAGLT2_DATADISK
p376
aVAGLT2_CALIBDISK
p377
aVAGLT2_LOCALGROUPDISK
p378
asg208
g364
sg209
Nsg210
Nsg211
Nsg212
Nsg213
Nsg214
I0
sg165
S'panda.0304123808.803789.lib._17303704'
p379
sg215
Nsg216
S'ad:6bc61b2e'
p380
sg217
g281
sg218
I00
sg219
g364
sg220
Nsg221
S'NULL'
p381
sg222
NsbasS'datadir'
p382
S'/tmp/Panda_Pilot_3998216_1551703763/PandaJob_4265075871_data'
p383
sS'finalstate'
p384
g5
sS'scopeLog'
p385
(lp386
g71
asS'updatingPandaServer'
p387
I00
sg203
I00
sS'tarFileGuid'
p388
g194
sg206
(lp389
S'NULL'
p390
aS'NULL'
p391
aS'NULL'
p392
aS'NULL'
p393
aS'local'
p394
asS'log_latereg'
p395
g121
sS'outFilesGuids'
p396
(lp397
sS'exeErrorDiag'
p398
g5
sg217
g281
sS'output_fields'
p399
NsS'pgrp'
p400
I0
sS'ddmEndPointIn'
p401
(lp402
S'AGLT2_SCRATCHDISK'
p403
aS'AGLT2_SCRATCHDISK'
p404
aS'AGLT2_SCRATCHDISK'
p405
aS'AGLT2_SCRATCHDISK'
p406
aS'AGLT2_SCRATCHDISK'
p407
asS'outData'
p408
(lp409
g174
(g175
g176
Ntp410
Rp411
(dp412
g180
Nsg131
Nsg181
S'panda.um.user.lscyboz.17303704._000002.output.root'
p413
sg183
S'AGLT2_SCRATCHDISK'
p414
sg185
S'NULL'
p415
sg187
S'panda.um.user.lscyboz.410501.PowhegPythia8EvtGen.DAOD_TOPQ1.e5458_s3126_r9364_r9315_p3404.t3_output.root.234826619'
p416
sg135
S'TOMERGE'
p417
sg190
Nsg191
S'ANALY_AGLT2_SL7-condor'
p418
sg144
Nsg193
Nsg195
(lp419
sg197
Nsg198
I0
sg199
Nsg200
g71
sg201
S'output'
p420
sg203
I00
sg204
Nsg205
Nsg206
Nsg84
S'panda.um.user.lscyboz.410501.PowhegPythia8EvtGen.DAOD_TOPQ1.e5458_s3126_r9364_r9315_p3404.t3_output.root.234826619_sub06721703'
p421
sg87
Nsg208
Nsg209
Nsg210
Nsg211
Nsg212
Nsg213
Nsg214
I0
sg165
Nsg215
Nsg216
Nsg217
Nsg218
I00
sg219
Nsg220
Nsg221
Nsg222
NsbasS'maxCpuCount'
p422
I0
sS'result'
p423
(lp424
g45
aI0
aI0
asS'outputZipName'
p425
NsS'stdout'
p426
S'athena_stdout.txt'
p427
sS'subStatus'
p428
NsS'filesWithFAX'
p429
I0
sS'eventRanges'
p430
NsS'prodUserID'
p431
S'/DC=ch/DC=cern/OU=Organic Units/OU=Users/CN=lscyboz/CN=803876/CN=Ludovic Michel Scyboz/CN=proxy'
p432
sS'inputZipFiles'
p433
(lp434
sS'jobDefinitionID'
p435
I1617
sS'inFiles'
p436
(lp437
S'DAOD_TOPQ1.12770053._000005.pool.root.1'
p438
aS'DAOD_TOPQ1.12770053._000006.pool.root.1'
p439
aS'DAOD_TOPQ1.12770053._000007.pool.root.1'
p440
aS'DAOD_TOPQ1.12770053._000008.pool.root.1'
p441
aS'panda.0304123808.803789.lib._17303704.16751001456.lib.tgz'
p442
asS'stagedOutESFiles'
p443
(lp444
sg191
S'ANALY_AGLT2_SL7-condor,ANALY_AGLT2_SL7-condor'
p445
sS'vmPeakMean'
p446
I0
sS'fileStateDictionary'
p447
NsS'workdir'
p448
S'/tmp/Panda_Pilot_3998216_1551703763/PandaJob'
p449
sS'transferType'
p450
g132
sS'dbData'
p451
g5
sS'nEvents'
p452
I0
sg197
I00
sS'cpuConsumptionTime'
p453
I0
sg213
(lp454
g5
asS'usePrefetcher'
p455
I00
sS'filesizeIn'
p456
(lp457
S'7382262165'
p458
aS'7398983644'
p459
aS'7386787697'
p460
aS'7400696159'
p461
aS'900408'
p462
asS'putLogToOS'
p463
I00
sS'logBucketID'
p464
I-1
sS'JEM'
p465
S'NO'
p466
sS'altStageOut'
p467
g5
sbsS'recoveryAttempt'
p468
I0
sS'site'
p469
(iSite
Site
p470
(dp471
S'sitename'
p472
S'ANALY_AGLT2_SL7-condor'
p473
sS'appdir'
p474
S'/cvmfs/atlas.cern.ch/repo/sw'
p475
sS'wntmpdir'
p476
g449
sS'computingElement'
p477
S'ANALY_AGLT2_SL7-condor'
p478
sg448
g449
sbs.